; ModuleID = '38/1020.c'
source_filename = "38/1020.c"
target datalayout = "e-m:e-p270:32:32-p271:32:32-p272:64:64-i64:64-f80:128-n8:16:32:64-S128"
target triple = "x86_64-pc-linux-gnu"

@.str = private unnamed_addr constant [3 x i8] c"%d\00", align 1
@.str.1 = private unnamed_addr constant [4 x i8] c"%lf\00", align 1
@.str.2 = private unnamed_addr constant [7 x i8] c"%.5lf\0A\00", align 1

; Function Attrs: noinline nounwind uwtable
define dso_local i32 @main() #0 {
  %1 = alloca i32, align 4
  %2 = alloca i32, align 4
  %3 = alloca i32, align 4
  %4 = alloca [2000 x double], align 16
  %5 = alloca i32, align 4
  %6 = alloca i32, align 4
  %7 = alloca double, align 8
  %8 = alloca double, align 8
  %9 = alloca double, align 8
  %10 = alloca double, align 8
  store i32 0, i32* %1, align 4
  store double 0.000000e+00, double* %8, align 8
  store double 0.000000e+00, double* %9, align 8
  %11 = call i32 (i8*, ...) @__isoc99_scanf(i8* getelementptr inbounds ([3 x i8], [3 x i8]* @.str, i64 0, i64 0), i32* %2)
  store i32 0, i32* %5, align 4
  br label %12

12:                                               ; preds = %85, %0
  %13 = load i32, i32* %5, align 4
  %14 = load i32, i32* %2, align 4
  %15 = icmp slt i32 %13, %14
  br i1 %15, label %16, label %88

16:                                               ; preds = %12
  store double 0.000000e+00, double* %8, align 8
  store double 0.000000e+00, double* %7, align 8
  store double 0.000000e+00, double* %10, align 8
  store double 0.000000e+00, double* %9, align 8
  store i32 0, i32* %6, align 4
  br label %17

17:                                               ; preds = %25, %16
  %18 = load i32, i32* %6, align 4
  %19 = load i32, i32* %3, align 4
  %20 = icmp slt i32 %18, %19
  br i1 %20, label %21, label %28

21:                                               ; preds = %17
  %22 = load i32, i32* %5, align 4
  %23 = sext i32 %22 to i64
  %24 = getelementptr inbounds [2000 x double], [2000 x double]* %4, i64 0, i64 %23
  store double 0.000000e+00, double* %24, align 8
  br label %25

25:                                               ; preds = %21
  %26 = load i32, i32* %6, align 4
  %27 = add nsw i32 %26, 1
  store i32 %27, i32* %6, align 4
  br label %17

28:                                               ; preds = %17
  %29 = call i32 (i8*, ...) @__isoc99_scanf(i8* getelementptr inbounds ([3 x i8], [3 x i8]* @.str, i64 0, i64 0), i32* %3)
  store i32 0, i32* %6, align 4
  br label %30

30:                                               ; preds = %45, %28
  %31 = load i32, i32* %6, align 4
  %32 = load i32, i32* %3, align 4
  %33 = icmp slt i32 %31, %32
  br i1 %33, label %34, label %48

34:                                               ; preds = %30
  %35 = load i32, i32* %6, align 4
  %36 = sext i32 %35 to i64
  %37 = getelementptr inbounds [2000 x double], [2000 x double]* %4, i64 0, i64 %36
  %38 = call i32 (i8*, ...) @__isoc99_scanf(i8* getelementptr inbounds ([4 x i8], [4 x i8]* @.str.1, i64 0, i64 0), double* %37)
  %39 = load double, double* %8, align 8
  %40 = load i32, i32* %6, align 4
  %41 = sext i32 %40 to i64
  %42 = getelementptr inbounds [2000 x double], [2000 x double]* %4, i64 0, i64 %41
  %43 = load double, double* %42, align 8
  %44 = fadd double %39, %43
  store double %44, double* %8, align 8
  br label %45

45:                                               ; preds = %34
  %46 = load i32, i32* %6, align 4
  %47 = add nsw i32 %46, 1
  store i32 %47, i32* %6, align 4
  br label %30

48:                                               ; preds = %30
  %49 = load double, double* %8, align 8
  %50 = load i32, i32* %3, align 4
  %51 = sitofp i32 %50 to double
  %52 = fdiv double %49, %51
  store double %52, double* %7, align 8
  store i32 0, i32* %6, align 4
  br label %53

53:                                               ; preds = %73, %48
  %54 = load i32, i32* %6, align 4
  %55 = load i32, i32* %3, align 4
  %56 = icmp slt i32 %54, %55
  br i1 %56, label %57, label %76

57:                                               ; preds = %53
  %58 = load double, double* %9, align 8
  %59 = load i32, i32* %6, align 4
  %60 = sext i32 %59 to i64
  %61 = getelementptr inbounds [2000 x double], [2000 x double]* %4, i64 0, i64 %60
  %62 = load double, double* %61, align 8
  %63 = load double, double* %7, align 8
  %64 = fsub double %62, %63
  %65 = load i32, i32* %6, align 4
  %66 = sext i32 %65 to i64
  %67 = getelementptr inbounds [2000 x double], [2000 x double]* %4, i64 0, i64 %66
  %68 = load double, double* %67, align 8
  %69 = load double, double* %7, align 8
  %70 = fsub double %68, %69
  %71 = fmul double %64, %70
  %72 = fadd double %58, %71
  store double %72, double* %9, align 8
  br label %73

73:                                               ; preds = %57
  %74 = load i32, i32* %6, align 4
  %75 = add nsw i32 %74, 1
  store i32 %75, i32* %6, align 4
  br label %53

76:                                               ; preds = %53
  %77 = load double, double* %9, align 8
  %78 = load i32, i32* %3, align 4
  %79 = sitofp i32 %78 to double
  %80 = fdiv double %77, %79
  store double %80, double* %10, align 8
  %81 = load double, double* %10, align 8
  %82 = call double @sqrt(double %81) #3
  store double %82, double* %10, align 8
  %83 = load double, double* %10, align 8
  %84 = call i32 (i8*, ...) @printf(i8* getelementptr inbounds ([7 x i8], [7 x i8]* @.str.2, i64 0, i64 0), double %83)
  br label %85

85:                                               ; preds = %76
  %86 = load i32, i32* %5, align 4
  %87 = add nsw i32 %86, 1
  store i32 %87, i32* %5, align 4
  br label %12

88:                                               ; preds = %12
  ret i32 0
}

declare dso_local i32 @__isoc99_scanf(i8*, ...) #1

; Function Attrs: nounwind
declare dso_local double @sqrt(double) #2

declare dso_local i32 @printf(i8*, ...) #1


!llvm.module.flags = !{!0}
!llvm.ident = !{!1}

!0 = !{i32 1, !"wchar_size", i32 4}
!1 = !{!"clang version 10.0.0-4ubuntu1 "}
